; Function Attrs: nofree norecurse nosync nounwind memory(argmem: readwrite) uwtable
define internal void @grayf32leToY16_c(ptr noundef writeonly captures(none) %0, ptr noundef readonly captures(none) %1, ptr readnone captures(none) %2, ptr readnone captures(none) %3, i32 noundef %4, ptr readnone captures(none) %5, ptr readnone captures(none) %6) #1 {
  %8 = icmp sgt i32 %4, 0
  br i1 %8, label %.lr.ph.preheader, label %grayf32ToY16_c.exit

.lr.ph.preheader:                                 ; preds = %7
  %wide.trip.count = zext nneg i32 %4 to i64
  br label %.lr.ph

.lr.ph:                                           ; preds = %.lr.ph.preheader, %.lr.ph
  %indvars.iv = phi i64 [ 0, %.lr.ph.preheader ], [ %indvars.iv.next, %.lr.ph ]
  %9 = getelementptr inbounds nuw float, ptr %1, i64 %indvars.iv
  %10 = load float, ptr %9, align 1, !tbaa !34
  %11 = fmul nsz float %10, 6.553500e+04
  %12 = fcmp nsz ogt float %11, 0.000000e+00
  %13 = select nsz i1 %12, float %11, float 0.000000e+00
  %14 = fcmp nsz ogt float %13, 6.553500e+04
  %..i.i = select nsz i1 %14, float 6.553500e+04, float %13
  %15 = tail call i64 @llvm.lrint.i64.f32(float %..i.i)
  %16 = trunc i64 %15 to i16
  %17 = getelementptr inbounds nuw i16, ptr %0, i64 %indvars.iv
  store i16 %16, ptr %17, align 2, !tbaa !43
  %indvars.iv.next = add nuw nsw i64 %indvars.iv, 1
  %exitcond.not = icmp eq i64 %indvars.iv.next, %wide.trip.count
  br i1 %exitcond.not, label %grayf32ToY16_c.exit, label %.lr.ph, !llvm.loop !133

grayf32ToY16_c.exit:                              ; preds = %.lr.ph, %7
  ret void
}